target datalayout = "e-m:e-p270:32:32-p271:32:32-p272:64:64-i64:64-i128:128-f80:128-n8:16:32:64-S128"
target triple = "x86_64-pc-linux-gnu"

%"class.nanogui::Label" = type { %"class.nanogui::Widget.base", %"class.std::__cxx11::basic_string", %"class.std::__cxx11::basic_string", %"class.nanogui::Color" }
%"class.nanogui::Widget.base" = type <{ %"class.nanogui::Object.base", [4 x i8], ptr, %"class.nanogui::ref", %"class.nanogui::ref.0", %"struct.nanogui::Array", %"struct.nanogui::Array", %"struct.nanogui::Array", %"class.std::vector", i8, i8, i8, i8, [4 x i8], %"class.std::__cxx11::basic_string", i32, float, i32 }>
%"class.nanogui::Object.base" = type <{ ptr, %"struct.std::atomic" }>
%"struct.std::atomic" = type { %"struct.std::__atomic_base" }
%"struct.std::__atomic_base" = type { i32 }
%"class.nanogui::ref" = type { ptr }
%"class.nanogui::ref.0" = type { ptr }
%"struct.nanogui::Array" = type { [2 x i32] }
%"class.std::vector" = type { %"struct.std::_Vector_base" }
%"struct.std::_Vector_base" = type { %"struct.std::_Vector_base<nanogui::Widget *, std::allocator<nanogui::Widget *>>::_Vector_impl" }
%"struct.std::_Vector_base<nanogui::Widget *, std::allocator<nanogui::Widget *>>::_Vector_impl" = type { %"struct.std::_Vector_base<nanogui::Widget *, std::allocator<nanogui::Widget *>>::_Vector_impl_data" }
%"struct.std::_Vector_base<nanogui::Widget *, std::allocator<nanogui::Widget *>>::_Vector_impl_data" = type { ptr, ptr, ptr }
%"class.std::__cxx11::basic_string" = type { %"struct.std::__cxx11::basic_string<char>::_Alloc_hider", i64, %union.anon }
%"struct.std::__cxx11::basic_string<char>::_Alloc_hider" = type { ptr }
%union.anon = type { i64, [8 x i8] }
%"class.nanogui::Color" = type { %"struct.nanogui::Array.4" }
%"struct.nanogui::Array.4" = type { [4 x float] }
%"class.nanogui::Widget" = type <{ %"class.nanogui::Object.base", [4 x i8], ptr, %"class.nanogui::ref", %"class.nanogui::ref.0", %"struct.nanogui::Array", %"struct.nanogui::Array", %"struct.nanogui::Array", %"class.std::vector", i8, i8, i8, i8, [4 x i8], %"class.std::__cxx11::basic_string", i32, float, i32, [4 x i8] }>
%"class.nanogui::Theme" = type { %"class.nanogui::Object.base", i32, i32, i32, i32, float, i32, i32, i32, i32, i32, i32, i32, float, i32, i32, i32, i32, i32, i32, %"class.nanogui::Color", %"class.nanogui::Color", %"class.nanogui::Color", %"class.nanogui::Color", %"class.nanogui::Color", %"class.nanogui::Color", %"class.nanogui::Color", %"class.nanogui::Color", %"class.nanogui::Color", %"class.nanogui::Color", %"class.nanogui::Color", %"class.nanogui::Color", %"class.nanogui::Color", %"class.nanogui::Color", %"class.nanogui::Color", %"class.nanogui::Color", %"class.nanogui::Color", %"class.nanogui::Color", %"class.nanogui::Color", %"class.nanogui::Color", %"class.nanogui::Color", %"class.nanogui::Color", %"class.nanogui::Color", %"class.nanogui::Color", %"class.nanogui::Color", i32, i32, i32, i32, i32, i32, i32, i32, i32, i32 }

; Function Attrs: mustprogress nounwind uwtable
define linkonce_odr hidden noundef nonnull align 4 dereferenceable(4) ptr @_ZN7nanogui5ArrayIfLm4EEixEm(ptr noundef nonnull align 4 dereferenceable(16) %0, i64 noundef %1) #2 comdat align 2 {
  %3 = alloca ptr, align 8
  %4 = alloca i64, align 8
  store ptr %0, ptr %3, align 8
  store i64 %1, ptr %4, align 8
  %5 = load ptr, ptr %3, align 8
  %6 = getelementptr inbounds %"struct.nanogui::Array.4", ptr %5, i32 0, i32 0
  %7 = load i64, ptr %4, align 8
  %8 = getelementptr inbounds [4 x float], ptr %6, i64 0, i64 %7
  ret ptr %8
}

; Function Attrs: mustprogress nounwind uwtable
define linkonce_odr hidden void @_ZN7nanogui5ArrayIfLm4EEC2Ev(ptr noundef nonnull align 4 dereferenceable(16) %0) unnamed_addr #2 comdat align 2 {
  %2 = alloca ptr, align 8
  store ptr %0, ptr %2, align 8
  ret void
}

; Function Attrs: mustprogress nounwind uwtable
define linkonce_odr hidden void @_ZN7nanogui5ColorC2ERKNS_5ArrayIfLm4EEE(ptr noundef nonnull align 4 dereferenceable(16) %0, ptr noundef nonnull align 4 dereferenceable(16) %1) unnamed_addr #2 comdat align 2 {
  %3 = alloca ptr, align 8
  %4 = alloca ptr, align 8
  store ptr %0, ptr %3, align 8
  store ptr %1, ptr %4, align 8
  %5 = load ptr, ptr %3, align 8
  %6 = load ptr, ptr %4, align 8
  call void @llvm.memcpy.p0.p0.i64(ptr align 4 %5, ptr align 4 %6, i64 16, i1 false)
  ret void
}

; Function Attrs: mustprogress uwtable
define linkonce_odr hidden { <2 x float>, <2 x float> } @_ZN7nanoguidvERKNS_5ArrayIfLm4EEES3_(ptr noundef nonnull align 4 dereferenceable(16) %0, ptr noundef nonnull align 4 dereferenceable(16) %1) #0 comdat {
  %3 = alloca %"struct.nanogui::Array.4", align 4
  %4 = alloca ptr, align 8
  %5 = alloca ptr, align 8
  %6 = alloca i64, align 8
  store ptr %0, ptr %4, align 8
  store ptr %1, ptr %5, align 8
  call void @_ZN7nanogui5ArrayIfLm4EEC2Ev(ptr noundef nonnull align 4 dereferenceable(16) %3)
  store i64 0, ptr %6, align 8
  br label %7

7:                                                ; preds = %24, %2
  %8 = load i64, ptr %6, align 8
  %9 = icmp ult i64 %8, 4
  br i1 %9, label %10, label %27

10:                                               ; preds = %7
  %11 = load ptr, ptr %4, align 8
  %12 = getelementptr inbounds %"struct.nanogui::Array.4", ptr %11, i32 0, i32 0
  %13 = load i64, ptr %6, align 8
  %14 = getelementptr inbounds [4 x float], ptr %12, i64 0, i64 %13
  %15 = load float, ptr %14, align 4
  %16 = load ptr, ptr %5, align 8
  %17 = getelementptr inbounds %"struct.nanogui::Array.4", ptr %16, i32 0, i32 0
  %18 = load i64, ptr %6, align 8
  %19 = getelementptr inbounds [4 x float], ptr %17, i64 0, i64 %18
  %20 = load float, ptr %19, align 4
  %21 = fdiv float %15, %20
  %22 = load i64, ptr %6, align 8
  %23 = call noundef nonnull align 4 dereferenceable(4) ptr @_ZN7nanogui5ArrayIfLm4EEixEm(ptr noundef nonnull align 4 dereferenceable(16) %3, i64 noundef %22)
  store float %21, ptr %23, align 4
  br label %24

24:                                               ; preds = %10
  %25 = load i64, ptr %6, align 8
  %26 = add i64 %25, 1
  store i64 %26, ptr %6, align 8
  br label %7, !llvm.loop !7

27:                                               ; preds = %7
  %28 = getelementptr inbounds %"struct.nanogui::Array.4", ptr %3, i32 0, i32 0
  %29 = load { <2 x float>, <2 x float> }, ptr %28, align 4
  ret { <2 x float>, <2 x float> } %29
}

; Function Attrs: mustprogress nounwind uwtable
define linkonce_odr hidden void @_ZN7nanogui5ArrayIfLm4EEC2Ef(ptr noundef nonnull align 4 dereferenceable(16) %0, float noundef %1) unnamed_addr #2 comdat align 2 {
  %3 = alloca ptr, align 8
  %4 = alloca float, align 4
  %5 = alloca i64, align 8
  store ptr %0, ptr %3, align 8
  store float %1, ptr %4, align 4
  %6 = load ptr, ptr %3, align 8
  store i64 0, ptr %5, align 8
  br label %7

7:                                                ; preds = %15, %2
  %8 = load i64, ptr %5, align 8
  %9 = icmp ult i64 %8, 4
  br i1 %9, label %10, label %18

10:                                               ; preds = %7
  %11 = load float, ptr %4, align 4
  %12 = getelementptr inbounds %"struct.nanogui::Array.4", ptr %6, i32 0, i32 0
  %13 = load i64, ptr %5, align 8
  %14 = getelementptr inbounds [4 x float], ptr %12, i64 0, i64 %13
  store float %11, ptr %14, align 4
  br label %15

15:                                               ; preds = %10
  %16 = load i64, ptr %5, align 8
  %17 = add i64 %16, 1
  store i64 %17, ptr %5, align 8
  br label %7, !llvm.loop !8

18:                                               ; preds = %7
  ret void
}

; Function Attrs: mustprogress nounwind uwtable
define linkonce_odr hidden void @_ZN7nanogui5ArrayIfLm4EEC2ILm4ETnNSt9enable_ifIXeqT_Li4EEiE4typeELi0EEEffff(ptr noundef nonnull align 4 dereferenceable(16) %0, float noundef %1, float noundef %2, float noundef %3, float noundef %4) unnamed_addr #2 comdat align 2 {
  %6 = alloca ptr, align 8
  %7 = alloca float, align 4
  %8 = alloca float, align 4
  %9 = alloca float, align 4
  %10 = alloca float, align 4
  store ptr %0, ptr %6, align 8
  store float %1, ptr %7, align 4
  store float %2, ptr %8, align 4
  store float %3, ptr %9, align 4
  store float %4, ptr %10, align 4
  %11 = load ptr, ptr %6, align 8
  %12 = load float, ptr %7, align 4
  %13 = getelementptr inbounds %"struct.nanogui::Array.4", ptr %11, i32 0, i32 0
  %14 = getelementptr inbounds [4 x float], ptr %13, i64 0, i64 0
  store float %12, ptr %14, align 4
  %15 = load float, ptr %8, align 4
  %16 = getelementptr inbounds %"struct.nanogui::Array.4", ptr %11, i32 0, i32 0
  %17 = getelementptr inbounds [4 x float], ptr %16, i64 0, i64 1
  store float %15, ptr %17, align 4
  %18 = load float, ptr %9, align 4
  %19 = getelementptr inbounds %"struct.nanogui::Array.4", ptr %11, i32 0, i32 0
  %20 = getelementptr inbounds [4 x float], ptr %19, i64 0, i64 2
  store float %18, ptr %20, align 4
  %21 = load float, ptr %10, align 4
  %22 = getelementptr inbounds %"struct.nanogui::Array.4", ptr %11, i32 0, i32 0
  %23 = getelementptr inbounds [4 x float], ptr %22, i64 0, i64 3
  store float %21, ptr %23, align 4
  ret void
}

; Function Attrs: mustprogress uwtable
define linkonce_odr hidden void @_ZN7nanogui5ColorC2Eiiii(ptr noundef nonnull align 4 dereferenceable(16) %0, i32 noundef %1, i32 noundef %2, i32 noundef %3, i32 noundef %4) unnamed_addr #5 comdat align 2 {
  %6 = alloca ptr, align 8
  %7 = alloca i32, align 4
  %8 = alloca i32, align 4
  %9 = alloca i32, align 4
  %10 = alloca i32, align 4
  %11 = alloca %"struct.nanogui::Array.4", align 4
  %12 = alloca %"struct.nanogui::Array.4", align 4
  %13 = alloca %"struct.nanogui::Array.4", align 4
  store ptr %0, ptr %6, align 8
  store i32 %1, ptr %7, align 4
  store i32 %2, ptr %8, align 4
  store i32 %3, ptr %9, align 4
  store i32 %4, ptr %10, align 4
  %14 = load ptr, ptr %6, align 8
  %15 = load i32, ptr %7, align 4
  %16 = sitofp i32 %15 to float
  %17 = load i32, ptr %8, align 4
  %18 = sitofp i32 %17 to float
  %19 = load i32, ptr %9, align 4
  %20 = sitofp i32 %19 to float
  %21 = load i32, ptr %10, align 4
  %22 = sitofp i32 %21 to float
  call void @_ZN7nanogui5ArrayIfLm4EEC2ILm4ETnNSt9enable_ifIXeqT_Li4EEiE4typeELi0EEEffff(ptr noundef nonnull align 4 dereferenceable(16) %12, float noundef %16, float noundef %18, float noundef %20, float noundef %22)
  call void @_ZN7nanogui5ArrayIfLm4EEC2Ef(ptr noundef nonnull align 4 dereferenceable(16) %13, float noundef 2.550000e+02)
  %23 = call { <2 x float>, <2 x float> } @_ZN7nanoguidvERKNS_5ArrayIfLm4EEES3_(ptr noundef nonnull align 4 dereferenceable(16) %12, ptr noundef nonnull align 4 dereferenceable(16) %13)
  %24 = getelementptr inbounds %"struct.nanogui::Array.4", ptr %11, i32 0, i32 0
  %25 = getelementptr inbounds { <2 x float>, <2 x float> }, ptr %24, i32 0, i32 0
  %26 = extractvalue { <2 x float>, <2 x float> } %23, 0
  store <2 x float> %26, ptr %25, align 4
  %27 = getelementptr inbounds { <2 x float>, <2 x float> }, ptr %24, i32 0, i32 1
  %28 = extractvalue { <2 x float>, <2 x float> } %23, 1
  store <2 x float> %28, ptr %27, align 4
  call void @_ZN7nanogui5ColorC2ERKNS_5ArrayIfLm4EEE(ptr noundef nonnull align 4 dereferenceable(16) %14, ptr noundef nonnull align 4 dereferenceable(16) %11)
  ret void
}

; Function Attrs: mustprogress nounwind uwtable
define linkonce_odr hidden noundef ptr @_ZN7nanogui3refINS_5ThemeEEptEv(ptr noundef nonnull align 8 dereferenceable(8) %0) #2 comdat align 2 {
  %2 = alloca ptr, align 8
  store ptr %0, ptr %2, align 8
  %3 = load ptr, ptr %2, align 8
  %4 = getelementptr inbounds %"class.nanogui::ref", ptr %3, i32 0, i32 0
  %5 = load ptr, ptr %4, align 8
  ret ptr %5
}

; Function Attrs: mustprogress nounwind uwtable
define linkonce_odr hidden noundef ptr @_ZN7nanogui3refINS_5ThemeEEcvPS1_Ev(ptr noundef nonnull align 8 dereferenceable(8) %0) #2 comdat align 2 {
  %2 = alloca ptr, align 8
  store ptr %0, ptr %2, align 8
  %3 = load ptr, ptr %2, align 8
  %4 = getelementptr inbounds %"class.nanogui::ref", ptr %3, i32 0, i32 0
  %5 = load ptr, ptr %4, align 8
  ret ptr %5
}

; Function Attrs: mustprogress uwtable
define linkonce_odr hidden void @_ZN7nanogui5ColorC2Ev(ptr noundef nonnull align 4 dereferenceable(16) %0) unnamed_addr #0 comdat align 2 {
  %2 = alloca ptr, align 8
  store ptr %0, ptr %2, align 8
  %3 = load ptr, ptr %2, align 8
  call void @_ZN7nanogui5ColorC2Eiiii(ptr noundef nonnull align 4 dereferenceable(16) %3, i32 noundef 0, i32 noundef 0, i32 noundef 0, i32 noundef 0)
  ret void
}

; Function Attrs: mustprogress uwtable
define hidden void @_ZN7nanogui5LabelC2EPNS_6WidgetERKNSt7__cxx1112basic_stringIcSt11char_traitsIcESaIcEEESA_i(ptr noundef nonnull align 8 dereferenceable(224) %0, ptr noundef %1, ptr noundef nonnull align 8 dereferenceable(32) %2, ptr noundef nonnull align 8 dereferenceable(32) %3, i32 noundef %4) unnamed_addr #0 align 2 personality ptr @__gxx_personality_v0 {
  %6 = alloca ptr, align 8
  %7 = alloca ptr, align 8
  %8 = alloca ptr, align 8
  %9 = alloca ptr, align 8
  %10 = alloca i32, align 4
  %11 = alloca ptr, align 8
  %12 = alloca i32, align 4
  store ptr %0, ptr %6, align 8
  store ptr %1, ptr %7, align 8
  store ptr %2, ptr %8, align 8
  store ptr %3, ptr %9, align 8
  store i32 %4, ptr %10, align 4
  %13 = load ptr, ptr %6, align 8
  %14 = load ptr, ptr %7, align 8
  call void @_ZN7nanogui6WidgetC2EPS0_(ptr noundef nonnull align 8 dereferenceable(140) %13, ptr noundef %14)
  store ptr getelementptr inbounds ({ [17 x ptr] }, ptr @_ZTVN7nanogui5LabelE, i32 0, i32 0, i32 2), ptr %13, align 8
  %15 = getelementptr inbounds %"class.nanogui::Label", ptr %13, i32 0, i32 1
  %16 = load ptr, ptr %8, align 8
  invoke void @_ZNSt7__cxx1112basic_stringIcSt11char_traitsIcESaIcEEC1ERKS4_(ptr noundef nonnull align 8 dereferenceable(32) %15, ptr noundef nonnull align 8 dereferenceable(32) %16)
          to label %17 unwind label %39

17:                                               ; preds = %5
  %18 = getelementptr inbounds %"class.nanogui::Label", ptr %13, i32 0, i32 2
  %19 = load ptr, ptr %9, align 8
  invoke void @_ZNSt7__cxx1112basic_stringIcSt11char_traitsIcESaIcEEC1ERKS4_(ptr noundef nonnull align 8 dereferenceable(32) %18, ptr noundef nonnull align 8 dereferenceable(32) %19)
          to label %20 unwind label %43

20:                                               ; preds = %17
  %21 = getelementptr inbounds %"class.nanogui::Label", ptr %13, i32 0, i32 3
  invoke void @_ZN7nanogui5ColorC2Ev(ptr noundef nonnull align 4 dereferenceable(16) %21)
          to label %22 unwind label %47

22:                                               ; preds = %20
  %23 = getelementptr inbounds %"class.nanogui::Widget", ptr %13, i32 0, i32 3
  %24 = invoke noundef ptr @_ZN7nanogui3refINS_5ThemeEEcvPS1_Ev(ptr noundef nonnull align 8 dereferenceable(8) %23)
          to label %25 unwind label %47

25:                                               ; preds = %22
  %26 = icmp ne ptr %24, null
  br i1 %26, label %27, label %51

27:                                               ; preds = %25
  %28 = getelementptr inbounds %"class.nanogui::Widget", ptr %13, i32 0, i32 3
  %29 = invoke noundef ptr @_ZN7nanogui3refINS_5ThemeEEptEv(ptr noundef nonnull align 8 dereferenceable(8) %28)
          to label %30 unwind label %47

30:                                               ; preds = %27
  %31 = getelementptr inbounds %"class.nanogui::Theme", ptr %29, i32 0, i32 6
  %32 = load i32, ptr %31, align 8
  %33 = getelementptr inbounds %"class.nanogui::Widget", ptr %13, i32 0, i32 15
  store i32 %32, ptr %33, align 8
  %34 = getelementptr inbounds %"class.nanogui::Widget", ptr %13, i32 0, i32 3
  %35 = invoke noundef ptr @_ZN7nanogui3refINS_5ThemeEEptEv(ptr noundef nonnull align 8 dereferenceable(8) %34)
          to label %36 unwind label %47

36:                                               ; preds = %30
  %37 = getelementptr inbounds %"class.nanogui::Theme", ptr %35, i32 0, i32 25
  %38 = getelementptr inbounds %"class.nanogui::Label", ptr %13, i32 0, i32 3
  call void @llvm.memcpy.p0.p0.i64(ptr align 8 %38, ptr align 8 %37, i64 16, i1 false)
  br label %51

39:                                               ; preds = %5
  %40 = landingpad { ptr, i32 }
          cleanup
  %41 = extractvalue { ptr, i32 } %40, 0
  store ptr %41, ptr %11, align 8
  %42 = extractvalue { ptr, i32 } %40, 1
  store i32 %42, ptr %12, align 4
  br label %59

43:                                               ; preds = %17
  %44 = landingpad { ptr, i32 }
          cleanup
  %45 = extractvalue { ptr, i32 } %44, 0
  store ptr %45, ptr %11, align 8
  %46 = extractvalue { ptr, i32 } %44, 1
  store i32 %46, ptr %12, align 4
  br label %58

47:                                               ; preds = %30, %27, %22, %20
  %48 = landingpad { ptr, i32 }
          cleanup
  %49 = extractvalue { ptr, i32 } %48, 0
  store ptr %49, ptr %11, align 8
  %50 = extractvalue { ptr, i32 } %48, 1
  store i32 %50, ptr %12, align 4
  call void @_ZNSt7__cxx1112basic_stringIcSt11char_traitsIcESaIcEED1Ev(ptr noundef nonnull align 8 dereferenceable(32) %18) #8
  br label %58

51:                                               ; preds = %36, %25
  %52 = load i32, ptr %10, align 4
  %53 = icmp sge i32 %52, 0
  br i1 %53, label %54, label %57

54:                                               ; preds = %51
  %55 = load i32, ptr %10, align 4
  %56 = getelementptr inbounds %"class.nanogui::Widget", ptr %13, i32 0, i32 15
  store i32 %55, ptr %56, align 8
  br label %57

57:                                               ; preds = %54, %51
  ret void

58:                                               ; preds = %47, %43
  call void @_ZNSt7__cxx1112basic_stringIcSt11char_traitsIcESaIcEED1Ev(ptr noundef nonnull align 8 dereferenceable(32) %15) #8
  br label %59

59:                                               ; preds = %58, %39
  call void @_ZN7nanogui6WidgetD2Ev(ptr noundef nonnull align 8 dereferenceable(140) %13) #8
  br label %60

60:                                               ; preds = %59
  %61 = load ptr, ptr %11, align 8
  %62 = load i32, ptr %12, align 4
  %63 = insertvalue { ptr, i32 } poison, ptr %61, 0
  %64 = insertvalue { ptr, i32 } %63, i32 %62, 1
  resume { ptr, i32 } %64
}