; Function Attrs: mustprogress uwtable
define hidden void @_ZN7nanogui5LabelC2EPNS_6WidgetERKNSt7__cxx1112basic_stringIcSt11char_traitsIcESaIcEEESA_i(ptr noundef nonnull align 8 dereferenceable(224) %0, ptr noundef %1, ptr noundef nonnull align 8 dereferenceable(32) %2, ptr noundef nonnull align 8 dereferenceable(32) %3, i32 noundef %4) unnamed_addr #0 align 2 personality ptr @__gxx_personality_v0 {
  %6 = alloca %"struct.nanogui::Array.4", align 8
  %7 = alloca %"struct.nanogui::Array.4", align 4
  %8 = alloca %"struct.nanogui::Array.4", align 4
  tail call void @_ZN7nanogui6WidgetC2EPS0_(ptr noundef nonnull align 8 dereferenceable(140) %0, ptr noundef %1)
  store ptr getelementptr inbounds ({ [17 x ptr] }, ptr @_ZTVN7nanogui5LabelE, i64 0, i32 0, i64 2), ptr %0, align 8
  %9 = getelementptr inbounds i8, ptr %0, i64 144
  invoke void @_ZNSt7__cxx1112basic_stringIcSt11char_traitsIcESaIcEEC1ERKS4_(ptr noundef nonnull align 8 dereferenceable(32) %9, ptr noundef nonnull align 8 dereferenceable(32) %2)
          to label %10 unwind label %33

10:                                               ; preds = %5
  %11 = getelementptr inbounds i8, ptr %0, i64 176
  invoke void @_ZNSt7__cxx1112basic_stringIcSt11char_traitsIcESaIcEEC1ERKS4_(ptr noundef nonnull align 8 dereferenceable(32) %11, ptr noundef nonnull align 8 dereferenceable(32) %3)
          to label %12 unwind label %35

12:                                               ; preds = %10
  call void @llvm.lifetime.start.p0(i64 16, ptr nonnull %7)
  call void @llvm.lifetime.start.p0(i64 16, ptr nonnull %8)
  call void @llvm.memset.p0.i64(ptr noundef nonnull align 4 dereferenceable(16) %7, i8 0, i64 16, i1 false)
  br label %13

13:                                               ; preds = %13, %12
  %.04.i.i.i = phi i64 [ 0, %12 ], [ %15, %13 ]
  %14 = getelementptr inbounds [4 x float], ptr %8, i64 0, i64 %.04.i.i.i
  store float 2.550000e+02, ptr %14, align 4
  %15 = add nuw nsw i64 %.04.i.i.i, 1
  %exitcond.not.i.i.i = icmp eq i64 %15, 4
  br i1 %exitcond.not.i.i.i, label %_ZN7nanogui5ArrayIfLm4EEC2Ef.exit.i.i, label %13, !llvm.loop !5

_ZN7nanogui5ArrayIfLm4EEC2Ef.exit.i.i:            ; preds = %13
  call void @llvm.lifetime.start.p0(i64 16, ptr nonnull %6)
  br label %16

16:                                               ; preds = %16, %_ZN7nanogui5ArrayIfLm4EEC2Ef.exit.i.i
  %.06.i.i.i = phi i64 [ 0, %_ZN7nanogui5ArrayIfLm4EEC2Ef.exit.i.i ], [ %23, %16 ]
  %17 = getelementptr inbounds [4 x float], ptr %7, i64 0, i64 %.06.i.i.i
  %18 = load float, ptr %17, align 4
  %19 = getelementptr inbounds [4 x float], ptr %8, i64 0, i64 %.06.i.i.i
  %20 = load float, ptr %19, align 4
  %21 = fdiv float %18, %20
  %22 = getelementptr inbounds [4 x float], ptr %6, i64 0, i64 %.06.i.i.i
  store float %21, ptr %22, align 4
  %23 = add nuw nsw i64 %.06.i.i.i, 1
  %exitcond.not.i4.i.i = icmp eq i64 %23, 4
  br i1 %exitcond.not.i4.i.i, label %24, label %16, !llvm.loop !7

24:                                               ; preds = %16
  %25 = getelementptr inbounds i8, ptr %0, i64 208
  %.fca.0.load.i.i.i = load <2 x float>, ptr %6, align 8
  %.fca.1.gep.i.i.i = getelementptr inbounds i8, ptr %6, i64 8
  %.fca.1.load.i.i.i = load <2 x float>, ptr %.fca.1.gep.i.i.i, align 8
  call void @llvm.lifetime.end.p0(i64 16, ptr nonnull %6)
  store <2 x float> %.fca.0.load.i.i.i, ptr %25, align 8
  %.sroa.2.0..sroa_idx.i.i = getelementptr inbounds i8, ptr %0, i64 216
  store <2 x float> %.fca.1.load.i.i.i, ptr %.sroa.2.0..sroa_idx.i.i, align 8
  call void @llvm.lifetime.end.p0(i64 16, ptr nonnull %7)
  call void @llvm.lifetime.end.p0(i64 16, ptr nonnull %8)
  %26 = getelementptr inbounds i8, ptr %0, i64 24
  %27 = load ptr, ptr %26, align 8
  %.not = icmp eq ptr %27, null
  br i1 %.not, label %37, label %28

28:                                               ; preds = %24
  %29 = getelementptr inbounds i8, ptr %27, i64 32
  %30 = load i32, ptr %29, align 8
  %31 = getelementptr inbounds i8, ptr %0, i64 128
  store i32 %30, ptr %31, align 8
  %32 = getelementptr inbounds i8, ptr %27, i64 168
  tail call void @llvm.memcpy.p0.p0.i64(ptr noundef nonnull align 8 dereferenceable(16) %25, ptr noundef nonnull align 8 dereferenceable(16) %32, i64 16, i1 false)
  br label %37

33:                                               ; preds = %5
  %34 = landingpad { ptr, i32 }
          cleanup
  br label %42

35:                                               ; preds = %10
  %36 = landingpad { ptr, i32 }
          cleanup
  tail call void @_ZNSt7__cxx1112basic_stringIcSt11char_traitsIcESaIcEED1Ev(ptr noundef nonnull align 8 dereferenceable(32) %9) #10
  br label %42

37:                                               ; preds = %28, %24
  %38 = icmp sgt i32 %4, -1
  br i1 %38, label %39, label %41

39:                                               ; preds = %37
  %40 = getelementptr inbounds i8, ptr %0, i64 128
  store i32 %4, ptr %40, align 8
  br label %41

41:                                               ; preds = %39, %37
  ret void

42:                                               ; preds = %35, %33
  %.pn.pn = phi { ptr, i32 } [ %36, %35 ], [ %34, %33 ]
  tail call void @_ZN7nanogui6WidgetD2Ev(ptr noundef nonnull align 8 dereferenceable(140) %0) #10
  resume { ptr, i32 } %.pn.pn
}